; Function Attrs: mustprogress uwtable
define hidden void @_ZN4cvc58internal6theory14TheoryRewriter19preRewriteWithProofENS0_12NodeTemplateILb0EEE(ptr dead_on_unwind noalias writable sret(%"struct.cvc5::internal::theory::TrustRewriteResponse") align 8 %0, ptr noundef nonnull align 8 dereferenceable(64) %1, ptr noundef readonly captures(none) %2) unnamed_addr #3 align 2 personality ptr @__gxx_personality_v0 {
  %4 = alloca %"struct.cvc5::internal::theory::RewriteResponse", align 8
  %5 = alloca %"class.cvc5::internal::NodeTemplate.0", align 8
  %6 = alloca %"class.cvc5::internal::NodeTemplate", align 8
  %7 = alloca %"class.cvc5::internal::NodeTemplate", align 8
  call void @llvm.lifetime.start.p0(i64 16, ptr nonnull %4) #26
  %8 = load ptr, ptr %2, align 8, !tbaa !19
  store ptr %8, ptr %5, align 8, !tbaa !19
  %9 = load ptr, ptr %1, align 8, !tbaa !23
  %10 = getelementptr inbounds nuw i8, ptr %9, i64 40
  %11 = load ptr, ptr %10, align 8
  call void %11(ptr dead_on_unwind nonnull writable sret(%"struct.cvc5::internal::theory::RewriteResponse") align 8 %4, ptr noundef nonnull align 8 dereferenceable(64) %1, ptr noundef nonnull %5)
  %12 = load i32, ptr %4, align 8, !tbaa !25
  %13 = load ptr, ptr %2, align 8, !tbaa !19
  store ptr %13, ptr %6, align 8, !tbaa !17
  %14 = load i64, ptr %13, align 8
  %15 = lshr i64 %14, 40
  %16 = trunc nuw nsw i64 %15 to i32
  %17 = and i32 %16, 1048575
  %18 = icmp samesign ult i32 %17, 1048574
  br i1 %18, label %19, label %24, !prof !21

19:                                               ; preds = %3
  %20 = add i64 %14, 1099511627776
  %21 = and i64 %20, 1152920405095219200
  %22 = and i64 %14, -1152920405095219201
  %23 = or disjoint i64 %21, %22
  store i64 %23, ptr %13, align 8
  br label %_ZN4cvc58internal12NodeTemplateILb1EEC2ERKNS1_ILb0EEE.exit

24:                                               ; preds = %3
  %25 = icmp eq i32 %17, 1048574
  br i1 %25, label %26, label %_ZN4cvc58internal12NodeTemplateILb1EEC2ERKNS1_ILb0EEE.exit, !prof !22

26:                                               ; preds = %24
  %27 = or i64 %14, 1152920405095219200
  store i64 %27, ptr %13, align 8
  invoke void @_ZN4cvc58internal4expr9NodeValue20markRefCountMaxedOutEv(ptr noundef nonnull align 8 dereferenceable(24) %13)
          to label %_ZN4cvc58internal12NodeTemplateILb1EEC2ERKNS1_ILb0EEE.exit unwind label %82

_ZN4cvc58internal12NodeTemplateILb1EEC2ERKNS1_ILb0EEE.exit: ; preds = %24, %19, %26
  %28 = getelementptr inbounds nuw i8, ptr %4, i64 8
  %29 = load ptr, ptr %28, align 8, !tbaa !17
  store ptr %29, ptr %7, align 8, !tbaa !17
  %30 = load i64, ptr %29, align 8
  %31 = lshr i64 %30, 40
  %32 = trunc nuw nsw i64 %31 to i32
  %33 = and i32 %32, 1048575
  %34 = icmp samesign ult i32 %33, 1048574
  br i1 %34, label %35, label %40, !prof !21

35:                                               ; preds = %_ZN4cvc58internal12NodeTemplateILb1EEC2ERKNS1_ILb0EEE.exit
  %36 = add i64 %30, 1099511627776
  %37 = and i64 %36, 1152920405095219200
  %38 = and i64 %30, -1152920405095219201
  %39 = or disjoint i64 %37, %38
  store i64 %39, ptr %29, align 8
  br label %_ZN4cvc58internal12NodeTemplateILb1EEC2ERKS2_.exit

40:                                               ; preds = %_ZN4cvc58internal12NodeTemplateILb1EEC2ERKNS1_ILb0EEE.exit
  %41 = icmp eq i32 %33, 1048574
  br i1 %41, label %42, label %_ZN4cvc58internal12NodeTemplateILb1EEC2ERKS2_.exit, !prof !22

42:                                               ; preds = %40
  %43 = or i64 %30, 1152920405095219200
  store i64 %43, ptr %29, align 8
  invoke void @_ZN4cvc58internal4expr9NodeValue20markRefCountMaxedOutEv(ptr noundef nonnull align 8 dereferenceable(24) %29)
          to label %_ZN4cvc58internal12NodeTemplateILb1EEC2ERKS2_.exit unwind label %84

_ZN4cvc58internal12NodeTemplateILb1EEC2ERKS2_.exit: ; preds = %40, %35, %42
  invoke void @_ZN4cvc58internal6theory20TrustRewriteResponseC2ENS1_13RewriteStatusENS0_12NodeTemplateILb1EEES5_PNS0_14ProofGeneratorE(ptr noundef nonnull align 8 dereferenceable(32) %0, i32 noundef %12, ptr noundef nonnull %6, ptr noundef nonnull %7, ptr noundef null)
          to label %44 unwind label %86

44:                                               ; preds = %_ZN4cvc58internal12NodeTemplateILb1EEC2ERKS2_.exit
  %45 = load i64, ptr %29, align 8
  %46 = and i64 %45, 1152920405095219200
  %.not.i.i = icmp eq i64 %46, 1152920405095219200
  br i1 %.not.i.i, label %_ZN4cvc58internal12NodeTemplateILb1EED2Ev.exit, label %47, !prof !22

47:                                               ; preds = %44
  %48 = add i64 %45, 1152920405095219200
  %49 = and i64 %48, 1152920405095219200
  %50 = and i64 %45, -1152920405095219201
  %51 = or disjoint i64 %49, %50
  store i64 %51, ptr %29, align 8
  %52 = icmp eq i64 %49, 0
  br i1 %52, label %53, label %_ZN4cvc58internal12NodeTemplateILb1EED2Ev.exit, !prof !22

53:                                               ; preds = %47
  invoke void @_ZN4cvc58internal4expr9NodeValue15markForDeletionEv(ptr noundef nonnull align 8 dereferenceable(24) %29)
          to label %_ZN4cvc58internal12NodeTemplateILb1EED2Ev.exit unwind label %54

54:                                               ; preds = %53
  %55 = landingpad { ptr, i32 }
          catch ptr null
  %56 = extractvalue { ptr, i32 } %55, 0
  call void @__clang_call_terminate(ptr %56) #27
  unreachable

_ZN4cvc58internal12NodeTemplateILb1EED2Ev.exit:   ; preds = %44, %47, %53
  %57 = load i64, ptr %13, align 8
  %58 = and i64 %57, 1152920405095219200
  %.not.i.i9 = icmp eq i64 %58, 1152920405095219200
  br i1 %.not.i.i9, label %_ZN4cvc58internal12NodeTemplateILb1EED2Ev.exit10, label %59, !prof !22

59:                                               ; preds = %_ZN4cvc58internal12NodeTemplateILb1EED2Ev.exit
  %60 = add i64 %57, 1152920405095219200
  %61 = and i64 %60, 1152920405095219200
  %62 = and i64 %57, -1152920405095219201
  %63 = or disjoint i64 %61, %62
  store i64 %63, ptr %13, align 8
  %64 = icmp eq i64 %61, 0
  br i1 %64, label %65, label %_ZN4cvc58internal12NodeTemplateILb1EED2Ev.exit10, !prof !22

65:                                               ; preds = %59
  invoke void @_ZN4cvc58internal4expr9NodeValue15markForDeletionEv(ptr noundef nonnull align 8 dereferenceable(24) %13)
          to label %_ZN4cvc58internal12NodeTemplateILb1EED2Ev.exit10 unwind label %66

66:                                               ; preds = %65
  %67 = landingpad { ptr, i32 }
          catch ptr null
  %68 = extractvalue { ptr, i32 } %67, 0
  call void @__clang_call_terminate(ptr %68) #27
  unreachable

_ZN4cvc58internal12NodeTemplateILb1EED2Ev.exit10: ; preds = %_ZN4cvc58internal12NodeTemplateILb1EED2Ev.exit, %59, %65
  %69 = load ptr, ptr %28, align 8, !tbaa !17
  %70 = load i64, ptr %69, align 8
  %71 = and i64 %70, 1152920405095219200
  %.not.i.i.i = icmp eq i64 %71, 1152920405095219200
  br i1 %.not.i.i.i, label %_ZN4cvc58internal6theory15RewriteResponseD2Ev.exit, label %72, !prof !22

72:                                               ; preds = %_ZN4cvc58internal12NodeTemplateILb1EED2Ev.exit10
  %73 = add i64 %70, 1152920405095219200
  %74 = and i64 %73, 1152920405095219200
  %75 = and i64 %70, -1152920405095219201
  %76 = or disjoint i64 %74, %75
  store i64 %76, ptr %69, align 8
  %77 = icmp eq i64 %74, 0
  br i1 %77, label %78, label %_ZN4cvc58internal6theory15RewriteResponseD2Ev.exit, !prof !22

78:                                               ; preds = %72
  invoke void @_ZN4cvc58internal4expr9NodeValue15markForDeletionEv(ptr noundef nonnull align 8 dereferenceable(24) %69)
          to label %_ZN4cvc58internal6theory15RewriteResponseD2Ev.exit unwind label %79

79:                                               ; preds = %78
  %80 = landingpad { ptr, i32 }
          catch ptr null
  %81 = extractvalue { ptr, i32 } %80, 0
  call void @__clang_call_terminate(ptr %81) #27
  unreachable

_ZN4cvc58internal6theory15RewriteResponseD2Ev.exit: ; preds = %_ZN4cvc58internal12NodeTemplateILb1EED2Ev.exit10, %72, %78
  call void @llvm.lifetime.end.p0(i64 16, ptr nonnull %4) #26
  ret void

82:                                               ; preds = %26
  %83 = landingpad { ptr, i32 }
          cleanup
  br label %89

84:                                               ; preds = %42
  %85 = landingpad { ptr, i32 }
          cleanup
  br label %88

86:                                               ; preds = %_ZN4cvc58internal12NodeTemplateILb1EEC2ERKS2_.exit
  %87 = landingpad { ptr, i32 }
          cleanup
  call void @_ZN4cvc58internal12NodeTemplateILb1EED2Ev(ptr noundef nonnull align 8 dereferenceable(8) %7) #26
  br label %88

88:                                               ; preds = %86, %84
  %.pn = phi { ptr, i32 } [ %87, %86 ], [ %85, %84 ]
  call void @_ZN4cvc58internal12NodeTemplateILb1EED2Ev(ptr noundef nonnull align 8 dereferenceable(8) %6) #26
  br label %89

89:                                               ; preds = %88, %82
  %.pn.pn = phi { ptr, i32 } [ %.pn, %88 ], [ %83, %82 ]
  call void @_ZN4cvc58internal6theory15RewriteResponseD2Ev(ptr noundef nonnull align 8 dereferenceable(16) %4) #26
  call void @llvm.lifetime.end.p0(i64 16, ptr nonnull %4) #26
  resume { ptr, i32 } %.pn.pn
}